target datalayout = "e-m:e-p270:32:32-p271:32:32-p272:64:64-i64:64-i128:128-f80:128-n8:16:32:64-S128"
target triple = "x86_64-pc-linux-gnu"

; Function Attrs: alwaysinline nounwind willreturn memory(none) uwtable
define internal i32 @av_clip_uintp2_c(i32 noundef %0, i32 noundef %1) #6 {
  %3 = alloca i32, align 4
  %4 = alloca i32, align 4
  %5 = alloca i32, align 4
  store i32 %0, ptr %4, align 4, !tbaa !9
  store i32 %1, ptr %5, align 4, !tbaa !9
  %6 = load i32, ptr %4, align 4, !tbaa !9
  %7 = load i32, ptr %5, align 4, !tbaa !9
  %8 = shl i32 1, %7
  %9 = sub i32 %8, 1
  %10 = xor i32 %9, -1
  %11 = and i32 %6, %10
  %12 = icmp ne i32 %11, 0
  br i1 %12, label %13, label %21

13:                                               ; preds = %2
  %14 = load i32, ptr %4, align 4, !tbaa !9
  %15 = xor i32 %14, -1
  %16 = ashr i32 %15, 31
  %17 = load i32, ptr %5, align 4, !tbaa !9
  %18 = shl i32 1, %17
  %19 = sub i32 %18, 1
  %20 = and i32 %16, %19
  store i32 %20, ptr %3, align 4
  br label %23

21:                                               ; preds = %2
  %22 = load i32, ptr %4, align 4, !tbaa !9
  store i32 %22, ptr %3, align 4
  br label %23

23:                                               ; preds = %21, %13
  %24 = load i32, ptr %3, align 4
  ret i32 %24
}

; Function Attrs: nounwind uwtable
define internal void @weight_h264_pixels8_9_c(ptr noundef %0, i64 noundef %1, i32 noundef %2, i32 noundef %3, i32 noundef %4, i32 noundef %5) #1 {
  %7 = alloca ptr, align 8
  %8 = alloca i64, align 8
  %9 = alloca i32, align 4
  %10 = alloca i32, align 4
  %11 = alloca i32, align 4
  %12 = alloca i32, align 4
  %13 = alloca i32, align 4
  %14 = alloca ptr, align 8
  store ptr %0, ptr %7, align 8, !tbaa !39
  store i64 %1, ptr %8, align 8, !tbaa !53
  store i32 %2, ptr %9, align 4, !tbaa !9
  store i32 %3, ptr %10, align 4, !tbaa !9
  store i32 %4, ptr %11, align 4, !tbaa !9
  store i32 %5, ptr %12, align 4, !tbaa !9
  call void @llvm.lifetime.start.p0(i64 4, ptr %13) #9
  call void @llvm.lifetime.start.p0(i64 8, ptr %14) #9
  %15 = load ptr, ptr %7, align 8, !tbaa !39
  store ptr %15, ptr %14, align 8, !tbaa !41
  %16 = load i64, ptr %8, align 8, !tbaa !53
  %17 = ashr i64 %16, 1
  store i64 %17, ptr %8, align 8, !tbaa !53
  %18 = load i32, ptr %12, align 4, !tbaa !9
  %19 = load i32, ptr %10, align 4, !tbaa !9
  %20 = add nsw i32 %19, 1
  %21 = shl i32 %18, %20
  store i32 %21, ptr %12, align 4, !tbaa !9
  %22 = load i32, ptr %10, align 4, !tbaa !9
  %23 = icmp ne i32 %22, 0
  br i1 %23, label %24, label %30

24:                                               ; preds = %6
  %25 = load i32, ptr %10, align 4, !tbaa !9
  %26 = sub nsw i32 %25, 1
  %27 = shl i32 1, %26
  %28 = load i32, ptr %12, align 4, !tbaa !9
  %29 = add nsw i32 %28, %27
  store i32 %29, ptr %12, align 4, !tbaa !9
  br label %30

30:                                               ; preds = %24, %6
  store i32 0, ptr %13, align 4, !tbaa !9
  br label %31

31:                                               ; preds = %148, %30
  %32 = load i32, ptr %13, align 4, !tbaa !9
  %33 = load i32, ptr %9, align 4, !tbaa !9
  %34 = icmp slt i32 %32, %33
  br i1 %34, label %35, label %154

35:                                               ; preds = %31
  %36 = load ptr, ptr %14, align 8, !tbaa !41
  %37 = getelementptr inbounds i16, ptr %36, i64 0
  %38 = load i16, ptr %37, align 2, !tbaa !45
  %39 = zext i16 %38 to i32
  %40 = load i32, ptr %11, align 4, !tbaa !9
  %41 = mul nsw i32 %39, %40
  %42 = load i32, ptr %12, align 4, !tbaa !9
  %43 = add nsw i32 %41, %42
  %44 = load i32, ptr %10, align 4, !tbaa !9
  %45 = ashr i32 %43, %44
  %46 = call i32 @av_clip_uintp2_c(i32 noundef %45, i32 noundef 9) #10
  %47 = trunc i32 %46 to i16
  %48 = load ptr, ptr %14, align 8, !tbaa !41
  %49 = getelementptr inbounds i16, ptr %48, i64 0
  store i16 %47, ptr %49, align 2, !tbaa !45
  %50 = load ptr, ptr %14, align 8, !tbaa !41
  %51 = getelementptr inbounds i16, ptr %50, i64 1
  %52 = load i16, ptr %51, align 2, !tbaa !45
  %53 = zext i16 %52 to i32
  %54 = load i32, ptr %11, align 4, !tbaa !9
  %55 = mul nsw i32 %53, %54
  %56 = load i32, ptr %12, align 4, !tbaa !9
  %57 = add nsw i32 %55, %56
  %58 = load i32, ptr %10, align 4, !tbaa !9
  %59 = ashr i32 %57, %58
  %60 = call i32 @av_clip_uintp2_c(i32 noundef %59, i32 noundef 9) #10
  %61 = trunc i32 %60 to i16
  %62 = load ptr, ptr %14, align 8, !tbaa !41
  %63 = getelementptr inbounds i16, ptr %62, i64 1
  store i16 %61, ptr %63, align 2, !tbaa !45
  %64 = load ptr, ptr %14, align 8, !tbaa !41
  %65 = getelementptr inbounds i16, ptr %64, i64 2
  %66 = load i16, ptr %65, align 2, !tbaa !45
  %67 = zext i16 %66 to i32
  %68 = load i32, ptr %11, align 4, !tbaa !9
  %69 = mul nsw i32 %67, %68
  %70 = load i32, ptr %12, align 4, !tbaa !9
  %71 = add nsw i32 %69, %70
  %72 = load i32, ptr %10, align 4, !tbaa !9
  %73 = ashr i32 %71, %72
  %74 = call i32 @av_clip_uintp2_c(i32 noundef %73, i32 noundef 9) #10
  %75 = trunc i32 %74 to i16
  %76 = load ptr, ptr %14, align 8, !tbaa !41
  %77 = getelementptr inbounds i16, ptr %76, i64 2
  store i16 %75, ptr %77, align 2, !tbaa !45
  %78 = load ptr, ptr %14, align 8, !tbaa !41
  %79 = getelementptr inbounds i16, ptr %78, i64 3
  %80 = load i16, ptr %79, align 2, !tbaa !45
  %81 = zext i16 %80 to i32
  %82 = load i32, ptr %11, align 4, !tbaa !9
  %83 = mul nsw i32 %81, %82
  %84 = load i32, ptr %12, align 4, !tbaa !9
  %85 = add nsw i32 %83, %84
  %86 = load i32, ptr %10, align 4, !tbaa !9
  %87 = ashr i32 %85, %86
  %88 = call i32 @av_clip_uintp2_c(i32 noundef %87, i32 noundef 9) #10
  %89 = trunc i32 %88 to i16
  %90 = load ptr, ptr %14, align 8, !tbaa !41
  %91 = getelementptr inbounds i16, ptr %90, i64 3
  store i16 %89, ptr %91, align 2, !tbaa !45
  %92 = load ptr, ptr %14, align 8, !tbaa !41
  %93 = getelementptr inbounds i16, ptr %92, i64 4
  %94 = load i16, ptr %93, align 2, !tbaa !45
  %95 = zext i16 %94 to i32
  %96 = load i32, ptr %11, align 4, !tbaa !9
  %97 = mul nsw i32 %95, %96
  %98 = load i32, ptr %12, align 4, !tbaa !9
  %99 = add nsw i32 %97, %98
  %100 = load i32, ptr %10, align 4, !tbaa !9
  %101 = ashr i32 %99, %100
  %102 = call i32 @av_clip_uintp2_c(i32 noundef %101, i32 noundef 9) #10
  %103 = trunc i32 %102 to i16
  %104 = load ptr, ptr %14, align 8, !tbaa !41
  %105 = getelementptr inbounds i16, ptr %104, i64 4
  store i16 %103, ptr %105, align 2, !tbaa !45
  %106 = load ptr, ptr %14, align 8, !tbaa !41
  %107 = getelementptr inbounds i16, ptr %106, i64 5
  %108 = load i16, ptr %107, align 2, !tbaa !45
  %109 = zext i16 %108 to i32
  %110 = load i32, ptr %11, align 4, !tbaa !9
  %111 = mul nsw i32 %109, %110
  %112 = load i32, ptr %12, align 4, !tbaa !9
  %113 = add nsw i32 %111, %112
  %114 = load i32, ptr %10, align 4, !tbaa !9
  %115 = ashr i32 %113, %114
  %116 = call i32 @av_clip_uintp2_c(i32 noundef %115, i32 noundef 9) #10
  %117 = trunc i32 %116 to i16
  %118 = load ptr, ptr %14, align 8, !tbaa !41
  %119 = getelementptr inbounds i16, ptr %118, i64 5
  store i16 %117, ptr %119, align 2, !tbaa !45
  %120 = load ptr, ptr %14, align 8, !tbaa !41
  %121 = getelementptr inbounds i16, ptr %120, i64 6
  %122 = load i16, ptr %121, align 2, !tbaa !45
  %123 = zext i16 %122 to i32
  %124 = load i32, ptr %11, align 4, !tbaa !9
  %125 = mul nsw i32 %123, %124
  %126 = load i32, ptr %12, align 4, !tbaa !9
  %127 = add nsw i32 %125, %126
  %128 = load i32, ptr %10, align 4, !tbaa !9
  %129 = ashr i32 %127, %128
  %130 = call i32 @av_clip_uintp2_c(i32 noundef %129, i32 noundef 9) #10
  %131 = trunc i32 %130 to i16
  %132 = load ptr, ptr %14, align 8, !tbaa !41
  %133 = getelementptr inbounds i16, ptr %132, i64 6
  store i16 %131, ptr %133, align 2, !tbaa !45
  %134 = load ptr, ptr %14, align 8, !tbaa !41
  %135 = getelementptr inbounds i16, ptr %134, i64 7
  %136 = load i16, ptr %135, align 2, !tbaa !45
  %137 = zext i16 %136 to i32
  %138 = load i32, ptr %11, align 4, !tbaa !9
  %139 = mul nsw i32 %137, %138
  %140 = load i32, ptr %12, align 4, !tbaa !9
  %141 = add nsw i32 %139, %140
  %142 = load i32, ptr %10, align 4, !tbaa !9
  %143 = ashr i32 %141, %142
  %144 = call i32 @av_clip_uintp2_c(i32 noundef %143, i32 noundef 9) #10
  %145 = trunc i32 %144 to i16
  %146 = load ptr, ptr %14, align 8, !tbaa !41
  %147 = getelementptr inbounds i16, ptr %146, i64 7
  store i16 %145, ptr %147, align 2, !tbaa !45
  br label %148

148:                                              ; preds = %35
  %149 = load i32, ptr %13, align 4, !tbaa !9
  %150 = add nsw i32 %149, 1
  store i32 %150, ptr %13, align 4, !tbaa !9
  %151 = load i64, ptr %8, align 8, !tbaa !53
  %152 = load ptr, ptr %14, align 8, !tbaa !41
  %153 = getelementptr inbounds i16, ptr %152, i64 %151
  store ptr %153, ptr %14, align 8, !tbaa !41
  br label %31, !llvm.loop !56

154:                                              ; preds = %31
  call void @llvm.lifetime.end.p0(i64 8, ptr %14) #9
  call void @llvm.lifetime.end.p0(i64 4, ptr %13) #9
  ret void
}